target datalayout = "e-m:e-p270:32:32-p271:32:32-p272:64:64-i64:64-i128:128-f80:128-n8:16:32:64-S128"
target triple = "x86_64-unknown-linux-gnu"

%struct.atomic_p_t = type { ptr }

@dss_max = internal global %struct.atomic_p_t zeroinitializer, align 8
@dss_base = internal global ptr null, align 8

; Function Attrs: nounwind uwtable
define internal zeroext i1 @extent_in_dss_helper(ptr noundef %addr, ptr noundef %max) #0 {
entry:
  %addr.addr = alloca ptr, align 8
  %max.addr = alloca ptr, align 8
  store ptr %addr, ptr %addr.addr, align 8
  store ptr %max, ptr %max.addr, align 8
  %0 = load ptr, ptr %addr.addr, align 8
  %1 = ptrtoint ptr %0 to i64
  %2 = load ptr, ptr @dss_base, align 8
  %3 = ptrtoint ptr %2 to i64
  %cmp = icmp uge i64 %1, %3
  br i1 %cmp, label %land.rhs, label %land.end

land.rhs:                                         ; preds = %entry
  %4 = load ptr, ptr %addr.addr, align 8
  %5 = ptrtoint ptr %4 to i64
  %6 = load ptr, ptr %max.addr, align 8
  %7 = ptrtoint ptr %6 to i64
  %cmp1 = icmp ult i64 %5, %7
  br label %land.end

land.end:                                         ; preds = %land.rhs, %entry
  %8 = phi i1 [ false, %entry ], [ %cmp1, %land.rhs ]
  ret i1 %8
}

; Function Attrs: nounwind uwtable
define hidden zeroext i1 @extent_dss_mergeable(ptr noundef %addr_a, ptr noundef %addr_b) #0 {
entry:
  %retval.i = alloca i32, align 4
  %mo.addr.i7 = alloca i32, align 4
  %a.addr.i = alloca ptr, align 8
  %mo.addr.i = alloca i32, align 4
  %result.i = alloca ptr, align 8
  %retval = alloca i1, align 1
  %addr_a.addr = alloca ptr, align 8
  %addr_b.addr = alloca ptr, align 8
  %max = alloca ptr, align 8
  store ptr %addr_a, ptr %addr_a.addr, align 8
  store ptr %addr_b, ptr %addr_b.addr, align 8
  br label %do.body

do.body:                                          ; preds = %entry
  br label %do.end

do.end:                                           ; preds = %do.body
  %0 = load ptr, ptr %addr_a.addr, align 8
  %1 = ptrtoint ptr %0 to i64
  %2 = load ptr, ptr @dss_base, align 8
  %3 = ptrtoint ptr %2 to i64
  %cmp = icmp ult i64 %1, %3
  br i1 %cmp, label %land.lhs.true, label %if.end

land.lhs.true:                                    ; preds = %do.end
  %4 = load ptr, ptr %addr_b.addr, align 8
  %5 = ptrtoint ptr %4 to i64
  %6 = load ptr, ptr @dss_base, align 8
  %7 = ptrtoint ptr %6 to i64
  %cmp1 = icmp ult i64 %5, %7
  br i1 %cmp1, label %if.then, label %if.end

if.then:                                          ; preds = %land.lhs.true
  store i1 true, ptr %retval, align 1
  br label %return

if.end:                                           ; preds = %land.lhs.true, %do.end
  store ptr @dss_max, ptr %a.addr.i, align 8
  store i32 1, ptr %mo.addr.i, align 4
  %8 = load ptr, ptr %a.addr.i, align 8
  %9 = load i32, ptr %mo.addr.i, align 4
  store i32 %9, ptr %mo.addr.i7, align 4
  %10 = load i32, ptr %mo.addr.i7, align 4
  switch i32 %10, label %sw.epilog.i [
    i32 0, label %sw.bb.i
    i32 1, label %sw.bb1.i
    i32 2, label %sw.bb2.i
    i32 3, label %sw.bb3.i
    i32 4, label %sw.bb4.i
  ]

sw.bb.i:                                          ; preds = %if.end
  store i32 0, ptr %retval.i, align 4
  br label %atomic_enum_to_builtin.exit

sw.bb1.i:                                         ; preds = %if.end
  store i32 2, ptr %retval.i, align 4
  br label %atomic_enum_to_builtin.exit

sw.bb2.i:                                         ; preds = %if.end
  store i32 3, ptr %retval.i, align 4
  br label %atomic_enum_to_builtin.exit

sw.bb3.i:                                         ; preds = %if.end
  store i32 4, ptr %retval.i, align 4
  br label %atomic_enum_to_builtin.exit

sw.bb4.i:                                         ; preds = %if.end
  store i32 5, ptr %retval.i, align 4
  br label %atomic_enum_to_builtin.exit

sw.epilog.i:                                      ; preds = %if.end
  unreachable

atomic_enum_to_builtin.exit:                      ; preds = %sw.bb4.i, %sw.bb3.i, %sw.bb2.i, %sw.bb1.i, %sw.bb.i
  %11 = load i32, ptr %retval.i, align 4
  switch i32 %11, label %monotonic.i [
    i32 1, label %acquire.i
    i32 2, label %acquire.i
    i32 5, label %seqcst.i
  ]

monotonic.i:                                      ; preds = %atomic_enum_to_builtin.exit
  %12 = load atomic i64, ptr %8 monotonic, align 8
  store i64 %12, ptr %result.i, align 8
  br label %atomic_load_p.exit

acquire.i:                                        ; preds = %atomic_enum_to_builtin.exit, %atomic_enum_to_builtin.exit
  %13 = load atomic i64, ptr %8 acquire, align 8
  store i64 %13, ptr %result.i, align 8
  br label %atomic_load_p.exit

seqcst.i:                                         ; preds = %atomic_enum_to_builtin.exit
  %14 = load atomic i64, ptr %8 seq_cst, align 8
  store i64 %14, ptr %result.i, align 8
  br label %atomic_load_p.exit

atomic_load_p.exit:                               ; preds = %seqcst.i, %acquire.i, %monotonic.i
  %15 = load ptr, ptr %result.i, align 8
  store ptr %15, ptr %max, align 8
  %16 = load ptr, ptr %addr_a.addr, align 8
  %17 = load ptr, ptr %max, align 8
  %call2 = call zeroext i1 @extent_in_dss_helper(ptr noundef %16, ptr noundef %17)
  %conv = zext i1 %call2 to i32
  %18 = load ptr, ptr %addr_b.addr, align 8
  %19 = load ptr, ptr %max, align 8
  %call3 = call zeroext i1 @extent_in_dss_helper(ptr noundef %18, ptr noundef %19)
  %conv4 = zext i1 %call3 to i32
  %cmp5 = icmp eq i32 %conv, %conv4
  store i1 %cmp5, ptr %retval, align 1
  br label %return

return:                                           ; preds = %atomic_load_p.exit, %if.then
  %20 = load i1, ptr %retval, align 1
  ret i1 %20
}