; Function Attrs: mustprogress nofree norecurse nounwind willreturn memory(readwrite, argmem: none, inaccessiblemem: none) uwtable
define hidden zeroext i1 @extent_dss_mergeable(ptr noundef readnone %addr_a, ptr noundef readnone %addr_b) local_unnamed_addr #0 {
entry:
  %0 = load ptr, ptr @dss_base, align 8
  %cmp = icmp ugt ptr %0, %addr_a
  %cmp1 = icmp ugt ptr %0, %addr_b
  %or.cond = and i1 %cmp, %cmp1
  br i1 %or.cond, label %return, label %acquire.i

acquire.i:                                        ; preds = %entry
  %1 = load atomic i64, ptr @dss_max.0 acquire, align 8
  %2 = inttoptr i64 %1 to ptr
  %3 = load ptr, ptr @dss_base, align 8
  %cmp.i = icmp ule ptr %3, %addr_a
  %cmp1.i = icmp ugt ptr %2, %addr_a
  %4 = and i1 %cmp1.i, %cmp.i
  %5 = icmp ule ptr %2, %addr_b
  %6 = icmp ugt ptr %3, %addr_b
  %7 = or i1 %5, %6
  %cmp5 = xor i1 %4, %7
  br label %return

return:                                           ; preds = %entry, %acquire.i
  %retval.0 = phi i1 [ %cmp5, %acquire.i ], [ true, %entry ]
  ret i1 %retval.0
}